target datalayout = "e-m:e-p270:32:32-p271:32:32-p272:64:64-i64:64-i128:128-f80:128-n8:16:32:64-S128"
target triple = "x86_64-pc-linux-gnu"

%struct._phpdbg_param = type { i32, i64, i64, %struct.anon, %struct.anon.0, ptr, i64, ptr, ptr }
%struct.anon = type { ptr, i64 }
%struct.anon.0 = type { ptr, ptr }

; Function Attrs: nounwind uwtable
define zeroext i1 @phpdbg_match_param(ptr noundef %0, ptr noundef %1) #0 {
  %3 = alloca i1, align 1
  %4 = alloca ptr, align 8
  %5 = alloca ptr, align 8
  %6 = alloca [2 x i64], align 16
  %7 = alloca [2 x i64], align 16
  store ptr %0, ptr %4, align 8
  store ptr %1, ptr %5, align 8
  %8 = load ptr, ptr %4, align 8
  %9 = icmp ne ptr %8, null
  br i1 %9, label %10, label %215

10:                                               ; preds = %2
  %11 = load ptr, ptr %5, align 8
  %12 = icmp ne ptr %11, null
  br i1 %12, label %13, label %215

13:                                               ; preds = %10
  %14 = load ptr, ptr %4, align 8
  %15 = getelementptr inbounds %struct._phpdbg_param, ptr %14, i32 0, i32 0
  %16 = load i32, ptr %15, align 8
  %17 = load ptr, ptr %5, align 8
  %18 = getelementptr inbounds %struct._phpdbg_param, ptr %17, i32 0, i32 0
  %19 = load i32, ptr %18, align 8
  %20 = icmp eq i32 %16, %19
  br i1 %20, label %21, label %214

21:                                               ; preds = %13
  %22 = load ptr, ptr %4, align 8
  %23 = getelementptr inbounds %struct._phpdbg_param, ptr %22, i32 0, i32 0
  %24 = load i32, ptr %23, align 8
  switch i32 %24, label %212 [
    i32 9, label %25
    i32 7, label %26
    i32 5, label %36
    i32 6, label %58
    i32 1, label %66
    i32 2, label %74
    i32 8, label %136
    i32 4, label %146
    i32 0, label %211
  ]

25:                                               ; preds = %21
  store i1 true, ptr %3, align 1
  br label %216

26:                                               ; preds = %21
  %27 = load ptr, ptr %4, align 8
  %28 = getelementptr inbounds %struct._phpdbg_param, ptr %27, i32 0, i32 1
  %29 = load i64, ptr %28, align 8
  %30 = load ptr, ptr %5, align 8
  %31 = getelementptr inbounds %struct._phpdbg_param, ptr %30, i32 0, i32 1
  %32 = load i64, ptr %31, align 8
  %33 = icmp ne i64 %29, %32
  br i1 %33, label %34, label %35

34:                                               ; preds = %26
  br label %213

35:                                               ; preds = %26
  br label %36

36:                                               ; preds = %35, %21
  %37 = load ptr, ptr %4, align 8
  %38 = getelementptr inbounds %struct._phpdbg_param, ptr %37, i32 0, i32 6
  %39 = load i64, ptr %38, align 8
  %40 = load ptr, ptr %5, align 8
  %41 = getelementptr inbounds %struct._phpdbg_param, ptr %40, i32 0, i32 6
  %42 = load i64, ptr %41, align 8
  %43 = icmp eq i64 %39, %42
  br i1 %43, label %44, label %56

44:                                               ; preds = %36
  %45 = load ptr, ptr %4, align 8
  %46 = getelementptr inbounds %struct._phpdbg_param, ptr %45, i32 0, i32 5
  %47 = load ptr, ptr %46, align 8
  %48 = load ptr, ptr %5, align 8
  %49 = getelementptr inbounds %struct._phpdbg_param, ptr %48, i32 0, i32 5
  %50 = load ptr, ptr %49, align 8
  %51 = load ptr, ptr %4, align 8
  %52 = getelementptr inbounds %struct._phpdbg_param, ptr %51, i32 0, i32 6
  %53 = load i64, ptr %52, align 8
  %54 = call i32 @memcmp(ptr noundef %47, ptr noundef %50, i64 noundef %53) #13
  %55 = icmp eq i32 %54, 0
  br label %56

56:                                               ; preds = %44, %36
  %57 = phi i1 [ false, %36 ], [ %55, %44 ]
  store i1 %57, ptr %3, align 1
  br label %216

58:                                               ; preds = %21
  %59 = load ptr, ptr %4, align 8
  %60 = getelementptr inbounds %struct._phpdbg_param, ptr %59, i32 0, i32 1
  %61 = load i64, ptr %60, align 8
  %62 = load ptr, ptr %5, align 8
  %63 = getelementptr inbounds %struct._phpdbg_param, ptr %62, i32 0, i32 1
  %64 = load i64, ptr %63, align 8
  %65 = icmp eq i64 %61, %64
  store i1 %65, ptr %3, align 1
  br label %216

66:                                               ; preds = %21
  %67 = load ptr, ptr %4, align 8
  %68 = getelementptr inbounds %struct._phpdbg_param, ptr %67, i32 0, i32 2
  %69 = load i64, ptr %68, align 8
  %70 = load ptr, ptr %5, align 8
  %71 = getelementptr inbounds %struct._phpdbg_param, ptr %70, i32 0, i32 2
  %72 = load i64, ptr %71, align 8
  %73 = icmp eq i64 %69, %72
  store i1 %73, ptr %3, align 1
  br label %216

74:                                               ; preds = %21
  %75 = load ptr, ptr %4, align 8
  %76 = getelementptr inbounds %struct._phpdbg_param, ptr %75, i32 0, i32 3
  %77 = getelementptr inbounds %struct.anon, ptr %76, i32 0, i32 1
  %78 = load i64, ptr %77, align 8
  %79 = load ptr, ptr %5, align 8
  %80 = getelementptr inbounds %struct._phpdbg_param, ptr %79, i32 0, i32 3
  %81 = getelementptr inbounds %struct.anon, ptr %80, i32 0, i32 1
  %82 = load i64, ptr %81, align 8
  %83 = icmp eq i64 %78, %82
  br i1 %83, label %84, label %135

84:                                               ; preds = %74
  %85 = getelementptr inbounds [2 x i64], ptr %6, i64 0, i64 0
  %86 = load ptr, ptr %4, align 8
  %87 = getelementptr inbounds %struct._phpdbg_param, ptr %86, i32 0, i32 3
  %88 = getelementptr inbounds %struct.anon, ptr %87, i32 0, i32 0
  %89 = load ptr, ptr %88, align 8
  %90 = call i64 @strlen(ptr noundef %89) #13
  store i64 %90, ptr %85, align 8
  %91 = getelementptr inbounds i64, ptr %85, i64 1
  %92 = load ptr, ptr %5, align 8
  %93 = getelementptr inbounds %struct._phpdbg_param, ptr %92, i32 0, i32 3
  %94 = getelementptr inbounds %struct.anon, ptr %93, i32 0, i32 0
  %95 = load ptr, ptr %94, align 8
  %96 = call i64 @strlen(ptr noundef %95) #13
  store i64 %96, ptr %91, align 8
  %97 = getelementptr inbounds [2 x i64], ptr %6, i64 0, i64 0
  %98 = load i64, ptr %97, align 16
  %99 = getelementptr inbounds [2 x i64], ptr %6, i64 0, i64 1
  %100 = load i64, ptr %99, align 8
  %101 = icmp eq i64 %98, %100
  br i1 %101, label %102, label %134

102:                                              ; preds = %84
  %103 = load ptr, ptr %4, align 8
  %104 = getelementptr inbounds %struct._phpdbg_param, ptr %103, i32 0, i32 1
  %105 = load i64, ptr %104, align 8
  %106 = icmp ne i64 %105, 0
  br i1 %106, label %112, label %107

107:                                              ; preds = %102
  %108 = load ptr, ptr %5, align 8
  %109 = getelementptr inbounds %struct._phpdbg_param, ptr %108, i32 0, i32 1
  %110 = load i64, ptr %109, align 8
  %111 = icmp ne i64 %110, 0
  br i1 %111, label %112, label %120

112:                                              ; preds = %107, %102
  %113 = load ptr, ptr %4, align 8
  %114 = getelementptr inbounds %struct._phpdbg_param, ptr %113, i32 0, i32 1
  %115 = load i64, ptr %114, align 8
  %116 = load ptr, ptr %5, align 8
  %117 = getelementptr inbounds %struct._phpdbg_param, ptr %116, i32 0, i32 1
  %118 = load i64, ptr %117, align 8
  %119 = icmp eq i64 %115, %118
  br i1 %119, label %120, label %133

120:                                              ; preds = %112, %107
  %121 = load ptr, ptr %4, align 8
  %122 = getelementptr inbounds %struct._phpdbg_param, ptr %121, i32 0, i32 3
  %123 = getelementptr inbounds %struct.anon, ptr %122, i32 0, i32 0
  %124 = load ptr, ptr %123, align 8
  %125 = load ptr, ptr %5, align 8
  %126 = getelementptr inbounds %struct._phpdbg_param, ptr %125, i32 0, i32 3
  %127 = getelementptr inbounds %struct.anon, ptr %126, i32 0, i32 0
  %128 = load ptr, ptr %127, align 8
  %129 = getelementptr inbounds [2 x i64], ptr %6, i64 0, i64 0
  %130 = load i64, ptr %129, align 16
  %131 = call i32 @memcmp(ptr noundef %124, ptr noundef %128, i64 noundef %130) #13
  %132 = icmp eq i32 %131, 0
  store i1 %132, ptr %3, align 1
  br label %216

133:                                              ; preds = %112
  br label %134

134:                                              ; preds = %133, %84
  br label %135

135:                                              ; preds = %134, %74
  br label %213

136:                                              ; preds = %21
  %137 = load ptr, ptr %4, align 8
  %138 = getelementptr inbounds %struct._phpdbg_param, ptr %137, i32 0, i32 1
  %139 = load i64, ptr %138, align 8
  %140 = load ptr, ptr %5, align 8
  %141 = getelementptr inbounds %struct._phpdbg_param, ptr %140, i32 0, i32 1
  %142 = load i64, ptr %141, align 8
  %143 = icmp ne i64 %139, %142
  br i1 %143, label %144, label %145

144:                                              ; preds = %136
  br label %213

145:                                              ; preds = %136
  br label %146

146:                                              ; preds = %145, %21
  %147 = getelementptr inbounds [2 x i64], ptr %7, i64 0, i64 0
  %148 = load ptr, ptr %4, align 8
  %149 = getelementptr inbounds %struct._phpdbg_param, ptr %148, i32 0, i32 4
  %150 = getelementptr inbounds %struct.anon.0, ptr %149, i32 0, i32 0
  %151 = load ptr, ptr %150, align 8
  %152 = call i64 @strlen(ptr noundef %151) #13
  store i64 %152, ptr %147, align 8
  %153 = getelementptr inbounds i64, ptr %147, i64 1
  %154 = load ptr, ptr %5, align 8
  %155 = getelementptr inbounds %struct._phpdbg_param, ptr %154, i32 0, i32 4
  %156 = getelementptr inbounds %struct.anon.0, ptr %155, i32 0, i32 0
  %157 = load ptr, ptr %156, align 8
  %158 = call i64 @strlen(ptr noundef %157) #13
  store i64 %158, ptr %153, align 8
  %159 = getelementptr inbounds [2 x i64], ptr %7, i64 0, i64 0
  %160 = load i64, ptr %159, align 16
  %161 = getelementptr inbounds [2 x i64], ptr %7, i64 0, i64 1
  %162 = load i64, ptr %161, align 8
  %163 = icmp eq i64 %160, %162
  br i1 %163, label %164, label %210

164:                                              ; preds = %146
  %165 = load ptr, ptr %4, align 8
  %166 = getelementptr inbounds %struct._phpdbg_param, ptr %165, i32 0, i32 4
  %167 = getelementptr inbounds %struct.anon.0, ptr %166, i32 0, i32 0
  %168 = load ptr, ptr %167, align 8
  %169 = load ptr, ptr %5, align 8
  %170 = getelementptr inbounds %struct._phpdbg_param, ptr %169, i32 0, i32 4
  %171 = getelementptr inbounds %struct.anon.0, ptr %170, i32 0, i32 0
  %172 = load ptr, ptr %171, align 8
  %173 = getelementptr inbounds [2 x i64], ptr %7, i64 0, i64 0
  %174 = load i64, ptr %173, align 16
  %175 = call i32 @memcmp(ptr noundef %168, ptr noundef %172, i64 noundef %174) #13
  %176 = icmp eq i32 %175, 0
  br i1 %176, label %177, label %209

177:                                              ; preds = %164
  %178 = load ptr, ptr %4, align 8
  %179 = getelementptr inbounds %struct._phpdbg_param, ptr %178, i32 0, i32 4
  %180 = getelementptr inbounds %struct.anon.0, ptr %179, i32 0, i32 1
  %181 = load ptr, ptr %180, align 8
  %182 = call i64 @strlen(ptr noundef %181) #13
  %183 = getelementptr inbounds [2 x i64], ptr %7, i64 0, i64 0
  store i64 %182, ptr %183, align 16
  %184 = load ptr, ptr %5, align 8
  %185 = getelementptr inbounds %struct._phpdbg_param, ptr %184, i32 0, i32 4
  %186 = getelementptr inbounds %struct.anon.0, ptr %185, i32 0, i32 1
  %187 = load ptr, ptr %186, align 8
  %188 = call i64 @strlen(ptr noundef %187) #13
  %189 = getelementptr inbounds [2 x i64], ptr %7, i64 0, i64 1
  store i64 %188, ptr %189, align 8
  %190 = getelementptr inbounds [2 x i64], ptr %7, i64 0, i64 0
  %191 = load i64, ptr %190, align 16
  %192 = getelementptr inbounds [2 x i64], ptr %7, i64 0, i64 1
  %193 = load i64, ptr %192, align 8
  %194 = icmp eq i64 %191, %193
  br i1 %194, label %195, label %208

195:                                              ; preds = %177
  %196 = load ptr, ptr %4, align 8
  %197 = getelementptr inbounds %struct._phpdbg_param, ptr %196, i32 0, i32 4
  %198 = getelementptr inbounds %struct.anon.0, ptr %197, i32 0, i32 1
  %199 = load ptr, ptr %198, align 8
  %200 = load ptr, ptr %5, align 8
  %201 = getelementptr inbounds %struct._phpdbg_param, ptr %200, i32 0, i32 4
  %202 = getelementptr inbounds %struct.anon.0, ptr %201, i32 0, i32 1
  %203 = load ptr, ptr %202, align 8
  %204 = getelementptr inbounds [2 x i64], ptr %7, i64 0, i64 0
  %205 = load i64, ptr %204, align 16
  %206 = call i32 @memcmp(ptr noundef %199, ptr noundef %203, i64 noundef %205) #13
  %207 = icmp eq i32 %206, 0
  store i1 %207, ptr %3, align 1
  br label %216

208:                                              ; preds = %177
  br label %209

209:                                              ; preds = %208, %164
  br label %210

210:                                              ; preds = %209, %146
  br label %213

211:                                              ; preds = %21
  store i1 true, ptr %3, align 1
  br label %216

212:                                              ; preds = %21
  br label %213

213:                                              ; preds = %212, %210, %144, %135, %34
  br label %214

214:                                              ; preds = %213, %13
  br label %215

215:                                              ; preds = %214, %10, %2
  store i1 false, ptr %3, align 1
  br label %216

216:                                              ; preds = %215, %211, %195, %120, %66, %58, %56, %25
  %217 = load i1, ptr %3, align 1
  ret i1 %217
}