; Function Attrs: mustprogress nofree nounwind willreturn memory(read, inaccessiblemem: none) uwtable
define zeroext i1 @phpdbg_match_param(ptr noundef readonly %0, ptr noundef readonly %1) local_unnamed_addr #6 {
  %3 = icmp ne ptr %0, null
  %4 = icmp ne ptr %1, null
  %or.cond = and i1 %3, %4
  br i1 %or.cond, label %5, label %86

5:                                                ; preds = %2
  %6 = load i32, ptr %0, align 8
  %7 = load i32, ptr %1, align 8
  %8 = icmp eq i32 %6, %7
  br i1 %8, label %9, label %86

9:                                                ; preds = %5
  switch i32 %6, label %86 [
    i32 9, label %87
    i32 7, label %10
    i32 5, label %15
    i32 6, label %27
    i32 1, label %33
    i32 2, label %39
    i32 8, label %61
    i32 4, label %66
    i32 0, label %87
  ]

10:                                               ; preds = %9
  %11 = getelementptr inbounds i8, ptr %0, i64 8
  %12 = load i64, ptr %11, align 8
  %13 = getelementptr inbounds i8, ptr %1, i64 8
  %14 = load i64, ptr %13, align 8
  %.not55 = icmp eq i64 %12, %14
  br i1 %.not55, label %15, label %86

15:                                               ; preds = %10, %9
  %16 = getelementptr inbounds i8, ptr %0, i64 64
  %17 = load i64, ptr %16, align 8
  %18 = getelementptr inbounds i8, ptr %1, i64 64
  %19 = load i64, ptr %18, align 8
  %20 = icmp eq i64 %17, %19
  br i1 %20, label %21, label %87

21:                                               ; preds = %15
  %22 = getelementptr inbounds i8, ptr %0, i64 56
  %23 = load ptr, ptr %22, align 8
  %24 = getelementptr inbounds i8, ptr %1, i64 56
  %25 = load ptr, ptr %24, align 8
  %bcmp56 = tail call i32 @bcmp(ptr %23, ptr %25, i64 %17)
  %26 = icmp eq i32 %bcmp56, 0
  br label %87

27:                                               ; preds = %9
  %28 = getelementptr inbounds i8, ptr %0, i64 8
  %29 = load i64, ptr %28, align 8
  %30 = getelementptr inbounds i8, ptr %1, i64 8
  %31 = load i64, ptr %30, align 8
  %32 = icmp eq i64 %29, %31
  br label %87

33:                                               ; preds = %9
  %34 = getelementptr inbounds i8, ptr %0, i64 16
  %35 = load i64, ptr %34, align 8
  %36 = getelementptr inbounds i8, ptr %1, i64 16
  %37 = load i64, ptr %36, align 8
  %38 = icmp eq i64 %35, %37
  br label %87

39:                                               ; preds = %9
  %40 = getelementptr inbounds i8, ptr %0, i64 32
  %41 = load i64, ptr %40, align 8
  %42 = getelementptr inbounds i8, ptr %1, i64 32
  %43 = load i64, ptr %42, align 8
  %44 = icmp eq i64 %41, %43
  br i1 %44, label %45, label %86

45:                                               ; preds = %39
  %46 = getelementptr inbounds i8, ptr %1, i64 24
  %47 = getelementptr inbounds i8, ptr %0, i64 24
  %48 = load ptr, ptr %47, align 8
  %49 = tail call i64 @strlen(ptr noundef nonnull dereferenceable(1) %48) #23
  %50 = load ptr, ptr %46, align 8
  %51 = tail call i64 @strlen(ptr noundef nonnull dereferenceable(1) %50) #23
  %52 = icmp eq i64 %49, %51
  br i1 %52, label %53, label %86

53:                                               ; preds = %45
  %54 = getelementptr inbounds i8, ptr %0, i64 8
  %55 = load i64, ptr %54, align 8
  %.not52 = icmp eq i64 %55, 0
  %56 = getelementptr inbounds i8, ptr %1, i64 8
  %57 = load i64, ptr %56, align 8
  %.not53 = icmp eq i64 %57, 0
  %or.cond57 = select i1 %.not52, i1 %.not53, i1 false
  %58 = icmp eq i64 %55, %57
  %or.cond58 = select i1 %or.cond57, i1 true, i1 %58
  br i1 %or.cond58, label %59, label %86

59:                                               ; preds = %53
  %bcmp54 = tail call i32 @bcmp(ptr %48, ptr %50, i64 %49)
  %60 = icmp eq i32 %bcmp54, 0
  br label %87

61:                                               ; preds = %9
  %62 = getelementptr inbounds i8, ptr %0, i64 8
  %63 = load i64, ptr %62, align 8
  %64 = getelementptr inbounds i8, ptr %1, i64 8
  %65 = load i64, ptr %64, align 8
  %.not = icmp eq i64 %63, %65
  br i1 %.not, label %66, label %86

66:                                               ; preds = %61, %9
  %67 = getelementptr inbounds i8, ptr %0, i64 40
  %68 = load ptr, ptr %67, align 8
  %69 = tail call i64 @strlen(ptr noundef nonnull dereferenceable(1) %68) #23
  %70 = getelementptr inbounds i8, ptr %1, i64 40
  %71 = load ptr, ptr %70, align 8
  %72 = tail call i64 @strlen(ptr noundef nonnull dereferenceable(1) %71) #23
  %73 = icmp eq i64 %69, %72
  br i1 %73, label %74, label %86

74:                                               ; preds = %66
  %bcmp = tail call i32 @bcmp(ptr %68, ptr %71, i64 %69)
  %75 = icmp eq i32 %bcmp, 0
  br i1 %75, label %76, label %86

76:                                               ; preds = %74
  %77 = getelementptr inbounds i8, ptr %0, i64 48
  %78 = load ptr, ptr %77, align 8
  %79 = tail call i64 @strlen(ptr noundef nonnull dereferenceable(1) %78) #23
  %80 = getelementptr inbounds i8, ptr %1, i64 48
  %81 = load ptr, ptr %80, align 8
  %82 = tail call i64 @strlen(ptr noundef nonnull dereferenceable(1) %81) #23
  %83 = icmp eq i64 %79, %82
  br i1 %83, label %84, label %86

84:                                               ; preds = %76
  %bcmp51 = tail call i32 @bcmp(ptr %78, ptr %81, i64 %79)
  %85 = icmp eq i32 %bcmp51, 0
  br label %87

86:                                               ; preds = %53, %5, %9, %66, %76, %74, %61, %39, %45, %10, %2
  br label %87

87:                                               ; preds = %9, %15, %21, %9, %86, %84, %59, %33, %27
  %.0 = phi i1 [ false, %86 ], [ %85, %84 ], [ %60, %59 ], [ %38, %33 ], [ %32, %27 ], [ true, %9 ], [ false, %15 ], [ %26, %21 ], [ true, %9 ]
  ret i1 %.0
}